target datalayout = "e-m:e-p270:32:32-p271:32:32-p272:64:64-i64:64-i128:128-f80:128-n8:16:32:64-S128"
target triple = "x86_64-pc-linux-gnu"

%struct.If_Cut_t_ = type <{ float, float, float, float, i32, i32, i32, i64, [0 x i32] }>
%struct.If_Man_t_ = type { ptr, ptr, ptr, ptr, ptr, ptr, ptr, ptr, [5 x i32], i32, float, float, float, float, i32, float, i32, i32, [4 x ptr], ptr, i32, i32, i32, ptr, [3 x [32 x i32]], i32, i32, i32, ptr, ptr, ptr, ptr, ptr, ptr, ptr, i32, i32, i32, [16 x i32], i32, i32, i32, i32, ptr, ptr, ptr, ptr, ptr, i32, i32, [32 x i32], [32 x i32], i32, i32, i32, i32, ptr, [16 x ptr], [16 x ptr], [16 x ptr], [16 x ptr], [16 x ptr], [16 x ptr], [16 x ptr], ptr, ptr, ptr, ptr, [32 x i8], i32, i32, i32, [6 x i64], [2 x i32], [2 x i32], ptr, [15 x i32], ptr, ptr, ptr, [16 x i32], ptr, ptr, ptr, ptr, [2 x i32], [2 x i32], [2 x ptr], ptr }
%struct.If_Obj_t_ = type { i32, i32, i32, i32, i32, i32, ptr, ptr, ptr, float, float, float, %union.anon, ptr, %struct.If_Cut_t_ }
%union.anon = type { ptr }
%struct.Vec_Ptr_t_ = type { i32, i32, ptr }
%struct.timespec = type { i64, i64 }

@.str.7 = private unnamed_addr constant [39 x i8] c"Cound not find boundary for %d nodes.\0A\00", align 1
@.str.8 = private unnamed_addr constant [6 x i8] c"Cones\00", align 1
@.str.13 = private unnamed_addr constant [5 x i8] c"%s =\00", align 1
@.str.14 = private unnamed_addr constant [11 x i8] c"%9.2f sec\0A\00", align 1

; Function Attrs: inlinehint nounwind uwtable
define internal void @Abc_PrintTime(i32 noundef %0, ptr noundef %1, i64 noundef %2) #2 {
  %4 = alloca i32, align 4
  %5 = alloca ptr, align 8
  %6 = alloca i64, align 8
  store i32 %0, ptr %4, align 4, !tbaa !8
  store ptr %1, ptr %5, align 8, !tbaa !95
  store i64 %2, ptr %6, align 8, !tbaa !131
  %7 = load ptr, ptr %5, align 8, !tbaa !95
  call void (i32, ptr, ...) @Abc_Print(i32 noundef 1, ptr noundef @.str.13, ptr noundef %7)
  %8 = load i64, ptr %6, align 8, !tbaa !131
  %9 = sitofp i64 %8 to double
  %10 = fmul double 1.000000e+00, %9
  %11 = fdiv double %10, 1.000000e+06
  call void (i32, ptr, ...) @Abc_Print(i32 noundef 1, ptr noundef @.str.14, double noundef %11)
  ret void
}

; Function Attrs: inlinehint nounwind uwtable
define internal ptr @If_ObjCutBest(ptr noundef %0) #2 {
  %2 = alloca ptr, align 8
  store ptr %0, ptr %2, align 8, !tbaa !99
  %3 = load ptr, ptr %2, align 8, !tbaa !99
  %4 = getelementptr inbounds nuw %struct.If_Obj_t_, ptr %3, i32 0, i32 14
  ret ptr %4
}

; Function Attrs: inlinehint nounwind uwtable
define internal i32 @If_ObjIsAnd(ptr noundef %0) #2 {
  %2 = alloca ptr, align 8
  store ptr %0, ptr %2, align 8, !tbaa !99
  %3 = load ptr, ptr %2, align 8, !tbaa !99
  %4 = load i32, ptr %3, align 8
  %5 = and i32 %4, 15
  %6 = icmp eq i32 %5, 4
  %7 = zext i1 %6 to i32
  ret i32 %7
}

; Function Attrs: inlinehint nounwind uwtable
define internal ptr @Vec_PtrEntry(ptr noundef %0, i32 noundef %1) #2 {
  %3 = alloca ptr, align 8
  %4 = alloca i32, align 4
  store ptr %0, ptr %3, align 8, !tbaa !134
  store i32 %1, ptr %4, align 4, !tbaa !8
  %5 = load ptr, ptr %3, align 8, !tbaa !134
  %6 = getelementptr inbounds nuw %struct.Vec_Ptr_t_, ptr %5, i32 0, i32 2
  %7 = load ptr, ptr %6, align 8, !tbaa !137
  %8 = load i32, ptr %4, align 4, !tbaa !8
  %9 = sext i32 %8 to i64
  %10 = getelementptr inbounds ptr, ptr %7, i64 %9
  %11 = load ptr, ptr %10, align 8, !tbaa !138
  ret ptr %11
}

; Function Attrs: inlinehint nounwind uwtable
define internal i32 @Vec_PtrSize(ptr noundef %0) #2 {
  %2 = alloca ptr, align 8
  store ptr %0, ptr %2, align 8, !tbaa !134
  %3 = load ptr, ptr %2, align 8, !tbaa !134
  %4 = getelementptr inbounds nuw %struct.Vec_Ptr_t_, ptr %3, i32 0, i32 1
  %5 = load i32, ptr %4, align 4, !tbaa !135
  ret i32 %5
}

; Function Attrs: inlinehint nounwind uwtable
define internal i64 @Abc_Clock() #2 {
  %1 = alloca i64, align 8
  %2 = alloca %struct.timespec, align 8
  %3 = alloca i32, align 4
  %4 = alloca i64, align 8
  call void @llvm.lifetime.start.p0(i64 16, ptr %2) #9
  %5 = call i32 @clock_gettime(i32 noundef 1, ptr noundef %2) #9
  %6 = icmp slt i32 %5, 0
  br i1 %6, label %7, label %8

7:                                                ; preds = %0
  store i64 -1, ptr %1, align 8
  store i32 1, ptr %3, align 4
  br label %19

8:                                                ; preds = %0
  call void @llvm.lifetime.start.p0(i64 8, ptr %4) #9
  %9 = getelementptr inbounds nuw %struct.timespec, ptr %2, i32 0, i32 0
  %10 = load i64, ptr %9, align 8, !tbaa !156
  %11 = mul nsw i64 %10, 1000000
  store i64 %11, ptr %4, align 8, !tbaa !131
  %12 = getelementptr inbounds nuw %struct.timespec, ptr %2, i32 0, i32 1
  %13 = load i64, ptr %12, align 8, !tbaa !158
  %14 = mul nsw i64 %13, 1000000
  %15 = sdiv i64 %14, 1000000000
  %16 = load i64, ptr %4, align 8, !tbaa !131
  %17 = add nsw i64 %16, %15
  store i64 %17, ptr %4, align 8, !tbaa !131
  %18 = load i64, ptr %4, align 8, !tbaa !131
  store i64 %18, ptr %1, align 8
  store i32 1, ptr %3, align 4
  call void @llvm.lifetime.end.p0(i64 8, ptr %4) #9
  br label %19

19:                                               ; preds = %8, %7
  call void @llvm.lifetime.end.p0(i64 16, ptr %2) #9
  %20 = load i64, ptr %1, align 8
  ret i64 %20
}

; Function Attrs: nounwind uwtable
define i32 @If_CutGetCones(ptr noundef %0) #0 {
  %2 = alloca ptr, align 8
  %3 = alloca ptr, align 8
  %4 = alloca i32, align 4
  %5 = alloca i32, align 4
  %6 = alloca i64, align 8
  store ptr %0, ptr %2, align 8, !tbaa !35
  call void @llvm.lifetime.start.p0(i64 8, ptr %3) #9
  call void @llvm.lifetime.start.p0(i64 4, ptr %4) #9
  call void @llvm.lifetime.start.p0(i64 4, ptr %5) #9
  store i32 0, ptr %5, align 4, !tbaa !8
  call void @llvm.lifetime.start.p0(i64 8, ptr %6) #9
  %7 = call i64 @Abc_Clock()
  store i64 %7, ptr %6, align 8, !tbaa !131
  store i32 0, ptr %4, align 4, !tbaa !8
  br label %8

8:                                                ; preds = %44, %1
  %9 = load i32, ptr %4, align 4, !tbaa !8
  %10 = load ptr, ptr %2, align 8, !tbaa !35
  %11 = getelementptr inbounds nuw %struct.If_Man_t_, ptr %10, i32 0, i32 5
  %12 = load ptr, ptr %11, align 8, !tbaa !104
  %13 = call i32 @Vec_PtrSize(ptr noundef %12)
  %14 = icmp slt i32 %9, %13
  br i1 %14, label %15, label %21

15:                                               ; preds = %8
  %16 = load ptr, ptr %2, align 8, !tbaa !35
  %17 = getelementptr inbounds nuw %struct.If_Man_t_, ptr %16, i32 0, i32 5
  %18 = load ptr, ptr %17, align 8, !tbaa !104
  %19 = load i32, ptr %4, align 4, !tbaa !8
  %20 = call ptr @Vec_PtrEntry(ptr noundef %18, i32 noundef %19)
  store ptr %20, ptr %3, align 8, !tbaa !99
  br label %21

21:                                               ; preds = %15, %8
  %22 = phi i1 [ false, %8 ], [ true, %15 ]
  br i1 %22, label %23, label %47

23:                                               ; preds = %21
  %24 = load ptr, ptr %3, align 8, !tbaa !99
  %25 = call i32 @If_ObjIsAnd(ptr noundef %24)
  %26 = icmp ne i32 %25, 0
  br i1 %26, label %27, label %43

27:                                               ; preds = %23
  %28 = load ptr, ptr %3, align 8, !tbaa !99
  %29 = getelementptr inbounds nuw %struct.If_Obj_t_, ptr %28, i32 0, i32 3
  %30 = load i32, ptr %29, align 4, !tbaa !107
  %31 = icmp ne i32 %30, 0
  br i1 %31, label %32, label %43

32:                                               ; preds = %27
  %33 = load ptr, ptr %2, align 8, !tbaa !35
  %34 = load ptr, ptr %3, align 8, !tbaa !99
  %35 = load ptr, ptr %3, align 8, !tbaa !99
  %36 = call ptr @If_ObjCutBest(ptr noundef %35)
  %37 = call i32 @If_CutGetCone_rec(ptr noundef %33, ptr noundef %34, ptr noundef %36)
  %38 = icmp ne i32 %37, 0
  %39 = xor i1 %38, true
  %40 = zext i1 %39 to i32
  %41 = load i32, ptr %5, align 4, !tbaa !8
  %42 = add nsw i32 %41, %40
  store i32 %42, ptr %5, align 4, !tbaa !8
  br label %43

43:                                               ; preds = %32, %27, %23
  br label %44

44:                                               ; preds = %43
  %45 = load i32, ptr %4, align 4, !tbaa !8
  %46 = add nsw i32 %45, 1
  store i32 %46, ptr %4, align 4, !tbaa !8
  br label %8, !llvm.loop !133

47:                                               ; preds = %21
  %48 = load i32, ptr %5, align 4, !tbaa !8
  call void (i32, ptr, ...) @Abc_Print(i32 noundef 1, ptr noundef @.str.7, i32 noundef %48)
  %49 = call i64 @Abc_Clock()
  %50 = load i64, ptr %6, align 8, !tbaa !131
  %51 = sub nsw i64 %49, %50
  call void @Abc_PrintTime(i32 noundef 1, ptr noundef @.str.8, i64 noundef %51)
  call void @llvm.lifetime.end.p0(i64 8, ptr %6) #9
  call void @llvm.lifetime.end.p0(i64 4, ptr %5) #9
  call void @llvm.lifetime.end.p0(i64 4, ptr %4) #9
  call void @llvm.lifetime.end.p0(i64 8, ptr %3) #9
  ret i32 1
}