; Function Attrs: nounwind uwtable
define noundef i32 @If_CutGetCones(ptr noundef %0) local_unnamed_addr #0 {
  %2 = alloca %struct.timespec, align 8
  %3 = alloca %struct.timespec, align 8
  call void @llvm.lifetime.start.p0(i64 16, ptr nonnull %3) #19
  %4 = call i32 @clock_gettime(i32 noundef 1, ptr noundef nonnull %3) #19
  %5 = icmp slt i32 %4, 0
  br i1 %5, label %Abc_Clock.exit, label %6

6:                                                ; preds = %1
  %7 = load i64, ptr %3, align 8, !tbaa !126
  %.neg19 = mul i64 %7, -1000000
  %8 = getelementptr inbounds nuw i8, ptr %3, i64 8
  %9 = load i64, ptr %8, align 8, !tbaa !129
  %.neg = sdiv i64 %9, -1000
  %.neg20 = add i64 %.neg, %.neg19
  br label %Abc_Clock.exit

Abc_Clock.exit:                                   ; preds = %1, %6
  %.0.i.neg = phi i64 [ %.neg20, %6 ], [ 1, %1 ]
  call void @llvm.lifetime.end.p0(i64 16, ptr nonnull %3) #19
  %10 = getelementptr inbounds nuw i8, ptr %0, i64 40
  %11 = load ptr, ptr %10, align 8, !tbaa !92
  %12 = getelementptr i8, ptr %11, i64 4
  %.val16 = load i32, ptr %12, align 4, !tbaa !130
  %13 = icmp sgt i32 %.val16, 0
  br i1 %13, label %.lr.ph, label %.critedge

.lr.ph:                                           ; preds = %Abc_Clock.exit
  %14 = getelementptr i8, ptr %11, i64 8
  %.val = load ptr, ptr %14, align 8, !tbaa !93
  %wide.trip.count = zext nneg i32 %.val16 to i64
  br label %15

15:                                               ; preds = %.lr.ph, %27
  %indvars.iv = phi i64 [ 0, %.lr.ph ], [ %indvars.iv.next, %27 ]
  %.01221 = phi i32 [ 0, %.lr.ph ], [ %.1, %27 ]
  %16 = getelementptr inbounds nuw ptr, ptr %.val, i64 %indvars.iv
  %17 = load ptr, ptr %16, align 8, !tbaa !95
  %.val15 = load i32, ptr %17, align 8
  %18 = and i32 %.val15, 15
  %.not = icmp eq i32 %18, 4
  br i1 %.not, label %19, label %27

19:                                               ; preds = %15
  %20 = getelementptr inbounds nuw i8, ptr %17, i64 12
  %21 = load i32, ptr %20, align 4, !tbaa !104
  %.not13 = icmp eq i32 %21, 0
  br i1 %.not13, label %27, label %22

22:                                               ; preds = %19
  %23 = getelementptr inbounds nuw i8, ptr %17, i64 80
  %24 = call i32 @If_CutGetCone_rec(ptr noundef nonnull %0, ptr noundef nonnull %17, ptr noundef nonnull %23)
  %25 = xor i32 %24, 1
  %26 = add nsw i32 %25, %.01221
  br label %27

27:                                               ; preds = %15, %19, %22
  %.1 = phi i32 [ %26, %22 ], [ %.01221, %19 ], [ %.01221, %15 ]
  %indvars.iv.next = add nuw nsw i64 %indvars.iv, 1
  %exitcond.not = icmp eq i64 %indvars.iv.next, %wide.trip.count
  br i1 %exitcond.not, label %.critedge, label %15, !llvm.loop !131

.critedge:                                        ; preds = %27, %Abc_Clock.exit
  %.012.lcssa = phi i32 [ 0, %Abc_Clock.exit ], [ %.1, %27 ]
  call void (i32, ptr, ...) @Abc_Print(i32 noundef 1, ptr noundef nonnull @.str.7, i32 noundef %.012.lcssa)
  call void @llvm.lifetime.start.p0(i64 16, ptr nonnull %2) #19
  %28 = call i32 @clock_gettime(i32 noundef 1, ptr noundef nonnull %2) #19
  %29 = icmp slt i32 %28, 0
  br i1 %29, label %Abc_Clock.exit18, label %30

30:                                               ; preds = %.critedge
  %31 = load i64, ptr %2, align 8, !tbaa !126
  %32 = mul nsw i64 %31, 1000000
  %33 = getelementptr inbounds nuw i8, ptr %2, i64 8
  %34 = load i64, ptr %33, align 8, !tbaa !129
  %35 = sdiv i64 %34, 1000
  %36 = add nsw i64 %35, %32
  br label %Abc_Clock.exit18

Abc_Clock.exit18:                                 ; preds = %.critedge, %30
  %.0.i17 = phi i64 [ %36, %30 ], [ -1, %.critedge ]
  call void @llvm.lifetime.end.p0(i64 16, ptr nonnull %2) #19
  %37 = add i64 %.0.i17, %.0.i.neg
  call void (i32, ptr, ...) @Abc_Print(i32 noundef 1, ptr noundef nonnull @.str.13, ptr noundef nonnull @.str.8)
  %38 = sitofp i64 %37 to double
  %39 = fdiv double %38, 1.000000e+06
  call void (i32, ptr, ...) @Abc_Print(i32 noundef 1, ptr noundef nonnull @.str.14, double noundef %39)
  ret i32 1
}